target datalayout = "e-m:e-p270:32:32-p271:32:32-p272:64:64-i64:64-i128:128-f80:128-n8:16:32:64-S128"
target triple = "x86_64-pc-linux-gnu"

; Function Attrs: null_pointer_is_valid sspstrong uwtable
define internal zeroext i1 @test_ocp1(ptr noundef %0) #0 {
  %2 = alloca i1, align 1
  %3 = alloca ptr, align 8
  %4 = alloca i32, align 4
  %5 = alloca i32, align 4
  store ptr %0, ptr %3, align 8
  %6 = load ptr, ptr %3, align 8
  %7 = call i32 @tvb_captured_length(ptr noundef %6)
  %8 = icmp ult i32 %7, 10
  br i1 %8, label %9, label %10

9:                                                ; preds = %1
  store i1 false, ptr %2, align 1
  br label %58

10:                                               ; preds = %1
  %11 = load ptr, ptr %3, align 8
  %12 = call i32 @tvb_get_uint32(ptr noundef %11, i32 noundef 3, i32 noundef 0)
  %13 = icmp ult i32 %12, 9
  br i1 %13, label %14, label %15

14:                                               ; preds = %10
  store i1 false, ptr %2, align 1
  br label %58

15:                                               ; preds = %10
  %16 = load ptr, ptr %3, align 8
  %17 = call zeroext i8 @tvb_get_uint8(ptr noundef %16, i32 noundef 0)
  %18 = zext i8 %17 to i32
  %19 = icmp ne i32 %18, 59
  br i1 %19, label %20, label %21

20:                                               ; preds = %15
  store i1 false, ptr %2, align 1
  br label %58

21:                                               ; preds = %15
  %22 = load ptr, ptr %3, align 8
  %23 = call zeroext i16 @tvb_get_uint16(ptr noundef %22, i32 noundef 1, i32 noundef 0)
  %24 = zext i16 %23 to i32
  %25 = icmp ne i32 %24, 1
  br i1 %25, label %26, label %27

26:                                               ; preds = %21
  store i1 false, ptr %2, align 1
  br label %58

27:                                               ; preds = %21
  %28 = load ptr, ptr %3, align 8
  %29 = call zeroext i8 @tvb_get_uint8(ptr noundef %28, i32 noundef 7)
  %30 = zext i8 %29 to i32
  %31 = icmp sgt i32 %30, 4
  br i1 %31, label %32, label %33

32:                                               ; preds = %27
  store i1 false, ptr %2, align 1
  br label %58

33:                                               ; preds = %27
  call void @llvm.lifetime.start.p0(i64 4, ptr %4) #9
  %34 = load ptr, ptr %3, align 8
  %35 = call i32 @tvb_get_uint32(ptr noundef %34, i32 noundef 3, i32 noundef 0)
  store i32 %35, ptr %4, align 4
  %36 = load ptr, ptr %3, align 8
  %37 = call i32 @tvb_captured_length(ptr noundef %36)
  %38 = load i32, ptr %4, align 4
  %39 = add i32 %38, 1
  %40 = icmp ugt i32 %37, %39
  br i1 %40, label %41, label %56

41:                                               ; preds = %33
  %42 = load ptr, ptr %3, align 8
  %43 = load i32, ptr %4, align 4
  %44 = add i32 %43, 1
  %45 = call zeroext i8 @tvb_get_uint8(ptr noundef %42, i32 noundef %44)
  %46 = zext i8 %45 to i32
  %47 = icmp ne i32 %46, 59
  br i1 %47, label %48, label %55

48:                                               ; preds = %41
  %49 = load ptr, ptr %3, align 8
  %50 = call i32 @tvb_captured_length(ptr noundef %49)
  %51 = load i32, ptr %4, align 4
  %52 = add i32 %51, 11
  %53 = icmp ule i32 %50, %52
  br i1 %53, label %54, label %55

54:                                               ; preds = %48
  store i1 false, ptr %2, align 1
  store i32 1, ptr %5, align 4
  br label %57

55:                                               ; preds = %48, %41
  br label %56

56:                                               ; preds = %55, %33
  store i1 true, ptr %2, align 1
  store i32 1, ptr %5, align 4
  br label %57

57:                                               ; preds = %56, %54
  call void @llvm.lifetime.end.p0(i64 4, ptr %4) #9
  br label %58

58:                                               ; preds = %57, %32, %26, %20, %14, %9
  %59 = load i1, ptr %2, align 1
  ret i1 %59
}