; Function Attrs: null_pointer_is_valid sspstrong uwtable
define internal fastcc noundef zeroext i1 @test_ocp1(ptr noundef %0) unnamed_addr #0 {
  %2 = tail call i32 @tvb_captured_length(ptr noundef %0)
  %3 = icmp ult i32 %2, 10
  br i1 %3, label %25, label %4

4:                                                ; preds = %1
  %5 = tail call i32 @tvb_get_uint32(ptr noundef %0, i32 noundef 3, i32 noundef 0)
  %6 = icmp ult i32 %5, 9
  br i1 %6, label %25, label %7

7:                                                ; preds = %4
  %8 = tail call zeroext i8 @tvb_get_uint8(ptr noundef %0, i32 noundef 0)
  %.not = icmp eq i8 %8, 59
  br i1 %.not, label %9, label %25

9:                                                ; preds = %7
  %10 = tail call zeroext i16 @tvb_get_uint16(ptr noundef %0, i32 noundef 1, i32 noundef 0)
  %.not13 = icmp eq i16 %10, 1
  br i1 %.not13, label %11, label %25

11:                                               ; preds = %9
  %12 = tail call zeroext i8 @tvb_get_uint8(ptr noundef %0, i32 noundef 7)
  %13 = icmp ugt i8 %12, 4
  br i1 %13, label %25, label %14

14:                                               ; preds = %11
  %15 = tail call i32 @tvb_get_uint32(ptr noundef %0, i32 noundef 3, i32 noundef 0)
  %16 = tail call i32 @tvb_captured_length(ptr noundef %0)
  %17 = add i32 %15, 1
  %18 = icmp ugt i32 %16, %17
  br i1 %18, label %19, label %24

19:                                               ; preds = %14
  %20 = tail call zeroext i8 @tvb_get_uint8(ptr noundef %0, i32 noundef %17)
  %.not14 = icmp eq i8 %20, 59
  br i1 %.not14, label %24, label %21

21:                                               ; preds = %19
  %22 = tail call i32 @tvb_captured_length(ptr noundef %0)
  %23 = add i32 %15, 11
  %.not15 = icmp ugt i32 %22, %23
  br i1 %.not15, label %24, label %25

24:                                               ; preds = %19, %21, %14
  br label %25

25:                                               ; preds = %24, %21, %11, %9, %7, %4, %1
  %.0 = phi i1 [ false, %1 ], [ false, %4 ], [ false, %7 ], [ false, %9 ], [ false, %11 ], [ true, %24 ], [ false, %21 ]
  ret i1 %.0
}